; Function Attrs: nounwind uwtable
define noalias noundef ptr @Ssw_ClassesStart(ptr noundef %0) local_unnamed_addr #0 {
  %calloc = tail call dereferenceable_or_null(112) ptr @calloc(i64 1, i64 112)
  store ptr %0, ptr %calloc, align 8, !tbaa !3
  %2 = getelementptr i8, ptr %0, i64 32
  %.val = load ptr, ptr %2, align 8, !tbaa !14
  %3 = getelementptr i8, ptr %.val, i64 4
  %.val.val = load i32, ptr %3, align 4, !tbaa !24
  %4 = sext i32 %.val.val to i64
  %5 = tail call noalias ptr @calloc(i64 noundef %4, i64 noundef 8) #21
  %6 = getelementptr inbounds nuw i8, ptr %calloc, i64 8
  store ptr %5, ptr %6, align 8, !tbaa !26
  %7 = tail call noalias ptr @calloc(i64 noundef %4, i64 noundef 4) #21
  %8 = getelementptr inbounds nuw i8, ptr %calloc, i64 16
  store ptr %7, ptr %8, align 8, !tbaa !27
  %9 = tail call noalias dereferenceable_or_null(16) ptr @malloc(i64 noundef 16) #22
  %10 = getelementptr inbounds nuw i8, ptr %9, i64 4
  store i32 0, ptr %10, align 4, !tbaa !24
  store i32 100, ptr %9, align 8, !tbaa !28
  %11 = tail call noalias dereferenceable_or_null(800) ptr @malloc(i64 noundef 800) #22
  %12 = getelementptr inbounds nuw i8, ptr %9, i64 8
  store ptr %11, ptr %12, align 8, !tbaa !29
  %13 = getelementptr inbounds nuw i8, ptr %calloc, i64 56
  store ptr %9, ptr %13, align 8, !tbaa !30
  %14 = tail call noalias dereferenceable_or_null(16) ptr @malloc(i64 noundef 16) #22
  %15 = getelementptr inbounds nuw i8, ptr %14, i64 4
  store i32 0, ptr %15, align 4, !tbaa !24
  store i32 100, ptr %14, align 8, !tbaa !28
  %16 = tail call noalias dereferenceable_or_null(800) ptr @malloc(i64 noundef 800) #22
  %17 = getelementptr inbounds nuw i8, ptr %14, i64 8
  store ptr %16, ptr %17, align 8, !tbaa !29
  %18 = getelementptr inbounds nuw i8, ptr %calloc, i64 64
  store ptr %14, ptr %18, align 8, !tbaa !31
  %19 = tail call noalias dereferenceable_or_null(16) ptr @malloc(i64 noundef 16) #22
  %20 = getelementptr inbounds nuw i8, ptr %19, i64 4
  store i32 0, ptr %20, align 4, !tbaa !24
  store i32 1000, ptr %19, align 8, !tbaa !28
  %21 = tail call noalias dereferenceable_or_null(8000) ptr @malloc(i64 noundef 8000) #22
  %22 = getelementptr inbounds nuw i8, ptr %19, i64 8
  store ptr %21, ptr %22, align 8, !tbaa !29
  %23 = getelementptr inbounds nuw i8, ptr %calloc, i64 72
  store ptr %19, ptr %23, align 8, !tbaa !32
  %24 = getelementptr inbounds nuw i8, ptr %0, i64 256
  %25 = load ptr, ptr %24, align 8, !tbaa !33
  %26 = icmp eq ptr %25, null
  br i1 %26, label %27, label %28

27:                                               ; preds = %1
  tail call void @Aig_ManReprStart(ptr noundef nonnull %0, i32 noundef %.val.val) #23
  br label %28

28:                                               ; preds = %27, %1
  ret ptr %calloc
}